; Function Attrs: mustprogress nounwind uwtable
define void @_ZN9grpc_core5Party11ParticipantD2Ev(ptr nocapture noundef nonnull align 8 dereferenceable(32) %this) unnamed_addr #8 align 2 personality ptr @__gxx_personality_v0 {
entry:
  store ptr getelementptr inbounds ({ [4 x ptr] }, ptr @_ZTVN9grpc_core5Party11ParticipantE, i64 0, i32 0, i64 2), ptr %this, align 8
  %handle_ = getelementptr inbounds i8, ptr %this, i64 8
  %0 = load ptr, ptr %handle_, align 8
  %cmp.not = icmp eq ptr %0, null
  br i1 %cmp.not, label %if.end, label %if.then

if.then:                                          ; preds = %entry
  %mu_.i = getelementptr inbounds i8, ptr %0, i64 16
  invoke void @_ZN4absl12lts_202308025Mutex4LockEv(ptr noundef nonnull align 8 dereferenceable(8) %mu_.i)
          to label %.noexc unwind label %terminate.lpad

.noexc:                                           ; preds = %if.then
  %party_.i = getelementptr inbounds i8, ptr %0, i64 24
  %1 = load ptr, ptr %party_.i, align 8
  %cmp.not.i = icmp eq ptr %1, null
  br i1 %cmp.not.i, label %if.then.i, label %do.end.i

if.then.i:                                        ; preds = %.noexc
  invoke void @gpr_assertion_failed(ptr noundef nonnull @.str.4, i32 noundef 94, ptr noundef nonnull @.str.5) #25
          to label %.noexc1 unwind label %terminate.lpad

.noexc1:                                          ; preds = %if.then.i
  unreachable

do.end.i:                                         ; preds = %.noexc
  store ptr null, ptr %party_.i, align 8
  invoke void @_ZN4absl12lts_202308025Mutex6UnlockEv(ptr noundef nonnull align 8 dereferenceable(8) %mu_.i)
          to label %.noexc2 unwind label %terminate.lpad

.noexc2:                                          ; preds = %do.end.i
  %refs_.i.i = getelementptr inbounds i8, ptr %0, i64 8
  %2 = atomicrmw sub ptr %refs_.i.i, i64 1 acq_rel, align 8
  %cmp.not.i.i = icmp eq i64 %2, 1
  br i1 %cmp.not.i.i, label %delete.notnull.i.i, label %if.end

delete.notnull.i.i:                               ; preds = %.noexc2
  tail call void @_ZN4absl12lts_202308025MutexD1Ev(ptr noundef nonnull align 8 dereferenceable(8) %mu_.i) #26
  tail call void @_ZdlPv(ptr noundef nonnull %0) #27
  br label %if.end

if.end:                                           ; preds = %delete.notnull.i.i, %.noexc2, %entry
  ret void

terminate.lpad:                                   ; preds = %do.end.i, %if.then.i, %if.then
  %3 = landingpad { ptr, i32 }
          catch ptr null
  %4 = extractvalue { ptr, i32 } %3, 0
  tail call void @__clang_call_terminate(ptr %4) #23
  unreachable
}